; Function Attrs: nounwind uwtable
define range(i32 0, 2) i32 @BIO_free(ptr noundef %0) local_unnamed_addr #0 {
  %2 = icmp eq ptr %0, null
  br i1 %2, label %30, label %3

3:                                                ; preds = %1
  %4 = getelementptr inbounds nuw i8, ptr %0, i64 88
  %5 = atomicrmw sub ptr %4, i32 1 release, align 4
  %6 = icmp eq i32 %5, 1
  br i1 %6, label %CRYPTO_DOWN_REF.exit.thread, label %CRYPTO_DOWN_REF.exit

CRYPTO_DOWN_REF.exit.thread:                      ; preds = %3
  fence acquire
  br label %8

CRYPTO_DOWN_REF.exit:                             ; preds = %3
  %7 = icmp sgt i32 %5, 1
  br i1 %7, label %30, label %8

8:                                                ; preds = %CRYPTO_DOWN_REF.exit.thread, %CRYPTO_DOWN_REF.exit
  %9 = getelementptr inbounds nuw i8, ptr %0, i64 16
  %10 = load ptr, ptr %9, align 8, !tbaa !23
  %.not = icmp eq ptr %10, null
  %11 = getelementptr inbounds nuw i8, ptr %0, i64 24
  %12 = load ptr, ptr %11, align 8, !tbaa !24
  %.not16 = icmp eq ptr %12, null
  br i1 %.not, label %13, label %14

13:                                               ; preds = %8
  br i1 %.not16, label %20, label %.thread

14:                                               ; preds = %8
  br i1 %.not16, label %16, label %.thread

.thread:                                          ; preds = %13, %14
  %15 = tail call i64 %12(ptr noundef nonnull %0, i32 noundef 1, ptr noundef null, i64 noundef 0, i32 noundef 0, i64 noundef 0, i32 noundef 1, ptr noundef null) #14
  br label %bio_call_callback.exit

16:                                               ; preds = %14
  %17 = tail call i64 %10(ptr noundef nonnull %0, i32 noundef 1, ptr noundef null, i32 noundef 0, i64 noundef 0, i64 noundef 1) #14
  br label %bio_call_callback.exit

bio_call_callback.exit:                           ; preds = %16, %.thread
  %.0.i = phi i64 [ %15, %.thread ], [ %17, %16 ]
  %18 = trunc i64 %.0.i to i32
  %19 = icmp slt i32 %18, 1
  br i1 %19, label %30, label %20

20:                                               ; preds = %bio_call_callback.exit, %13
  %21 = getelementptr inbounds nuw i8, ptr %0, i64 8
  %22 = load ptr, ptr %21, align 8, !tbaa !17
  %.not17 = icmp eq ptr %22, null
  br i1 %.not17, label %28, label %23

23:                                               ; preds = %20
  %24 = getelementptr inbounds nuw i8, ptr %22, i64 80
  %25 = load ptr, ptr %24, align 8, !tbaa !25
  %.not18 = icmp eq ptr %25, null
  br i1 %.not18, label %28, label %26

26:                                               ; preds = %23
  %27 = tail call i32 %25(ptr noundef nonnull %0) #14
  br label %28

28:                                               ; preds = %26, %23, %20
  %29 = getelementptr inbounds nuw i8, ptr %0, i64 112
  tail call void @CRYPTO_free_ex_data(i32 noundef 12, ptr noundef nonnull %0, ptr noundef nonnull %29) #14
  tail call void @CRYPTO_free(ptr noundef nonnull %0, ptr noundef nonnull @.str, i32 noundef 147) #14
  br label %30

30:                                               ; preds = %bio_call_callback.exit, %CRYPTO_DOWN_REF.exit, %1, %28
  %.0 = phi i32 [ 1, %28 ], [ 0, %1 ], [ 1, %CRYPTO_DOWN_REF.exit ], [ 0, %bio_call_callback.exit ]
  ret i32 %.0
}